; Function Attrs: mustprogress nounwind uwtable
define noundef nonnull align 8 dereferenceable(16) ptr @_ZN2cv4gapi3wip6onevpl8CfgParamaSEOS3_(ptr noundef nonnull returned align 8 dereferenceable(16) %0, ptr noundef nonnull align 8 dereferenceable(16) %1) local_unnamed_addr #3 align 2 personality ptr @__gxx_personality_v0 {
  %.not = icmp eq ptr %0, %1
  br i1 %.not, label %_ZNSt10shared_ptrIN2cv4gapi3wip6onevpl8CfgParam4PrivEEaSEOS6_.exit, label %3

3:                                                ; preds = %2
  %4 = load ptr, ptr %1, align 8, !tbaa !21
  %5 = getelementptr inbounds nuw i8, ptr %1, i64 8
  %6 = load ptr, ptr %5, align 8, !tbaa !26
  tail call void @llvm.memset.p0.i64(ptr noundef nonnull align 8 dereferenceable(16) %1, i8 0, i64 16, i1 false)
  store ptr %4, ptr %0, align 8, !tbaa !114
  %7 = getelementptr inbounds nuw i8, ptr %0, i64 8
  %8 = load ptr, ptr %7, align 8, !tbaa !26
  store ptr %6, ptr %7, align 8, !tbaa !26
  %.not.i.i.i.i = icmp eq ptr %8, null
  br i1 %.not.i.i.i.i, label %_ZNSt10shared_ptrIN2cv4gapi3wip6onevpl8CfgParam4PrivEEaSEOS6_.exit, label %9

9:                                                ; preds = %3
  %10 = getelementptr inbounds nuw i8, ptr %8, i64 8
  %11 = load atomic i64, ptr %10 acquire, align 8
  %12 = icmp eq i64 %11, 4294967297
  %13 = trunc i64 %11 to i32
  br i1 %12, label %14, label %22

14:                                               ; preds = %9
  store i32 0, ptr %10, align 8, !tbaa !27
  %15 = getelementptr inbounds nuw i8, ptr %8, i64 12
  store i32 0, ptr %15, align 4, !tbaa !30
  %16 = load ptr, ptr %8, align 8, !tbaa !31
  %17 = getelementptr inbounds nuw i8, ptr %16, i64 16
  %18 = load ptr, ptr %17, align 8
  tail call void %18(ptr noundef nonnull align 8 dereferenceable(16) %8) #27
  %19 = load ptr, ptr %8, align 8, !tbaa !31
  %20 = getelementptr inbounds nuw i8, ptr %19, i64 24
  %21 = load ptr, ptr %20, align 8
  tail call void %21(ptr noundef nonnull align 8 dereferenceable(16) %8) #27
  br label %_ZNSt10shared_ptrIN2cv4gapi3wip6onevpl8CfgParam4PrivEEaSEOS6_.exit

22:                                               ; preds = %9
  %23 = load i8, ptr @__libc_single_threaded, align 1, !tbaa !14
  %.not.i.i.i.i.i = icmp eq i8 %23, 0
  br i1 %.not.i.i.i.i.i, label %26, label %24

24:                                               ; preds = %22
  %25 = add nsw i32 %13, -1
  store i32 %25, ptr %10, align 4, !tbaa !35
  br label %_ZN9__gnu_cxx27__exchange_and_add_dispatchEPii.exit.i.i.i.i.i

26:                                               ; preds = %22
  %27 = atomicrmw volatile add ptr %10, i32 -1 acq_rel, align 4
  br label %_ZN9__gnu_cxx27__exchange_and_add_dispatchEPii.exit.i.i.i.i.i

_ZN9__gnu_cxx27__exchange_and_add_dispatchEPii.exit.i.i.i.i.i: ; preds = %26, %24
  %.0.i.i.i.i.i.i = phi i32 [ %13, %24 ], [ %27, %26 ]
  %28 = icmp eq i32 %.0.i.i.i.i.i.i, 1
  br i1 %28, label %29, label %_ZNSt10shared_ptrIN2cv4gapi3wip6onevpl8CfgParam4PrivEEaSEOS6_.exit, !prof !36

29:                                               ; preds = %_ZN9__gnu_cxx27__exchange_and_add_dispatchEPii.exit.i.i.i.i.i
  tail call void @_ZNSt16_Sp_counted_baseILN9__gnu_cxx12_Lock_policyE2EE24_M_release_last_use_coldEv(ptr noundef nonnull align 8 dereferenceable(16) %8) #27
  br label %_ZNSt10shared_ptrIN2cv4gapi3wip6onevpl8CfgParam4PrivEEaSEOS6_.exit

_ZNSt10shared_ptrIN2cv4gapi3wip6onevpl8CfgParam4PrivEEaSEOS6_.exit: ; preds = %29, %_ZN9__gnu_cxx27__exchange_and_add_dispatchEPii.exit.i.i.i.i.i, %14, %3, %2
  ret ptr %0
}